target datalayout = "e-m:e-p270:32:32-p271:32:32-p272:64:64-i64:64-i128:128-f80:128-n8:16:32:64-S128"
target triple = "x86_64-pc-linux-gnu"

@_mi_heap_default_key = hidden global i32 -1, align 4

; Function Attrs: mustprogress nounwind uwtable
define hidden void @_Z38_mi_prim_thread_associate_default_heapP9mi_heap_s(ptr noundef %0) #5 {
  %2 = alloca ptr, align 8
  store ptr %0, ptr %2, align 8, !tbaa !42
  %3 = load i32, ptr @_mi_heap_default_key, align 4, !tbaa !58
  %4 = icmp ne i32 %3, -1
  br i1 %4, label %5, label %9

5:                                                ; preds = %1
  %6 = load i32, ptr @_mi_heap_default_key, align 4, !tbaa !58
  %7 = load ptr, ptr %2, align 8, !tbaa !42
  %8 = call i32 @pthread_setspecific(i32 noundef %6, ptr noundef %7) #19
  br label %9

9:                                                ; preds = %5, %1
  ret void
}